; ModuleID = 'source-C-CXX/46/4694.c'
source_filename = "source-C-CXX/46/4694.c"
target datalayout = "e-m:e-p270:32:32-p271:32:32-p272:64:64-i64:64-f80:128-n8:16:32:64-S128"
target triple = "x86_64-pc-linux-gnu"

@.str = private unnamed_addr constant [3 x i8] c"%d\00", align 1
@.str.1 = private unnamed_addr constant [4 x i8] c"%d \00", align 1
@.str.2 = private unnamed_addr constant [4 x i8] c"%d\0A\00", align 1

; Function Attrs: nofree nounwind sspstrong uwtable
define dso_local i32 @main(i32 %0, i8** nocapture readnone %1) local_unnamed_addr #0 {
  %3 = alloca [100 x i32], align 16
  %4 = alloca i32, align 4
  %5 = bitcast [100 x i32]* %3 to i8*
  call void @llvm.lifetime.start.p0i8(i64 400, i8* nonnull %5) #3
  %6 = bitcast i32* %4 to i8*
  call void @llvm.lifetime.start.p0i8(i64 4, i8* nonnull %6) #3
  %7 = call i32 (i8*, ...) @__isoc99_scanf(i8* getelementptr inbounds ([3 x i8], [3 x i8]* @.str, i64 0, i64 0), i32* nonnull %4)
  %8 = load i32, i32* %4, align 4, !tbaa !5
  %9 = icmp sgt i32 %8, 0
  br i1 %9, label %14, label %32

10:                                               ; preds = %14
  %11 = icmp sgt i32 %19, 1
  br i1 %11, label %12, label %32

12:                                               ; preds = %10
  %13 = zext i32 %19 to i64
  br label %22

14:                                               ; preds = %2, %14
  %15 = phi i64 [ %18, %14 ], [ 0, %2 ]
  %16 = getelementptr inbounds [100 x i32], [100 x i32]* %3, i64 0, i64 %15
  %17 = call i32 (i8*, ...) @__isoc99_scanf(i8* getelementptr inbounds ([3 x i8], [3 x i8]* @.str, i64 0, i64 0), i32* nonnull %16)
  %18 = add nuw nsw i64 %15, 1
  %19 = load i32, i32* %4, align 4, !tbaa !5
  %20 = sext i32 %19 to i64
  %21 = icmp slt i64 %18, %20
  br i1 %21, label %14, label %10, !llvm.loop !9

22:                                               ; preds = %12, %22
  %23 = phi i64 [ %13, %12 ], [ %31, %22 ]
  %24 = phi i32 [ %19, %12 ], [ %25, %22 ]
  %25 = add nsw i32 %24, -1
  %26 = zext i32 %25 to i64
  %27 = getelementptr inbounds [100 x i32], [100 x i32]* %3, i64 0, i64 %26
  %28 = load i32, i32* %27, align 4, !tbaa !5
  %29 = call i32 (i8*, ...) @printf(i8* nonnull dereferenceable(1) getelementptr inbounds ([4 x i8], [4 x i8]* @.str.1, i64 0, i64 0), i32 %28)
  %30 = icmp sgt i64 %23, 2
  %31 = add nsw i64 %23, -1
  br i1 %30, label %22, label %32, !llvm.loop !11

32:                                               ; preds = %22, %2, %10
  %33 = getelementptr inbounds [100 x i32], [100 x i32]* %3, i64 0, i64 0
  %34 = load i32, i32* %33, align 16, !tbaa !5
  %35 = call i32 (i8*, ...) @printf(i8* nonnull dereferenceable(1) getelementptr inbounds ([4 x i8], [4 x i8]* @.str.2, i64 0, i64 0), i32 %34)
  call void @llvm.lifetime.end.p0i8(i64 4, i8* nonnull %6) #3
  call void @llvm.lifetime.end.p0i8(i64 400, i8* nonnull %5) #3
  ret i32 0
}

; Function Attrs: argmemonly mustprogress nofree nosync nounwind willreturn
declare void @llvm.lifetime.start.p0i8(i64 immarg, i8* nocapture) #1

; Function Attrs: nofree nounwind
declare noundef i32 @__isoc99_scanf(i8* nocapture noundef readonly, ...) local_unnamed_addr #2

; Function Attrs: nofree nounwind
declare noundef i32 @printf(i8* nocapture noundef readonly, ...) local_unnamed_addr #2

; Function Attrs: argmemonly mustprogress nofree nosync nounwind willreturn
declare void @llvm.lifetime.end.p0i8(i64 immarg, i8* nocapture) #1


!llvm.module.flags = !{!0, !1, !2, !3}
!llvm.ident = !{!4}

!0 = !{i32 1, !"wchar_size", i32 4}
!1 = !{i32 7, !"PIC Level", i32 2}
!2 = !{i32 7, !"PIE Level", i32 2}
!3 = !{i32 7, !"uwtable", i32 1}
!4 = !{!"clang version 13.0.0"}
!5 = !{!6, !6, i64 0}
!6 = !{!"int", !7, i64 0}
!7 = !{!"omnipotent char", !8, i64 0}
!8 = !{!"Simple C/C++ TBAA"}
!9 = distinct !{!9, !10}
!10 = !{!"llvm.loop.mustprogress"}
!11 = distinct !{!11, !10}
